; Function Attrs: nounwind uwtable
define ptr @l_instGetElem_x3fOfGetElemOfDecidable___rarg___lambda__1(ptr noundef %0, ptr noundef %1, ptr noundef %2, ptr noundef %3) #0 {
  %5 = ptrtoint ptr %3 to i64
  %6 = and i64 %5, 1
  %.not = icmp eq i64 %6, 0
  br i1 %.not, label %7, label %lean_inc.exit18

7:                                                ; preds = %4
  %.val.i = load i32, ptr %3, align 4, !tbaa !8
  %8 = icmp sgt i32 %.val.i, 0
  br i1 %8, label %9, label %11, !prof !13

9:                                                ; preds = %7
  %10 = add nuw i32 %.val.i, 1
  store i32 %10, ptr %3, align 4, !tbaa !8
  br label %lean_inc.exit18

11:                                               ; preds = %7
  %.not.i28 = icmp eq i32 %.val.i, 0
  br i1 %.not.i28, label %lean_inc.exit18, label %12

12:                                               ; preds = %11
  tail call void @lean_inc_ref_cold(ptr noundef nonnull %3) #5
  br label %lean_inc.exit18

lean_inc.exit18:                                  ; preds = %12, %11, %9, %4
  %13 = ptrtoint ptr %2 to i64
  %14 = and i64 %13, 1
  %.not32 = icmp eq i64 %14, 0
  br i1 %.not32, label %15, label %lean_inc.exit

15:                                               ; preds = %lean_inc.exit18
  %.val.i29 = load i32, ptr %2, align 4, !tbaa !8
  %16 = icmp sgt i32 %.val.i29, 0
  br i1 %16, label %17, label %19, !prof !13

17:                                               ; preds = %15
  %18 = add nuw i32 %.val.i29, 1
  store i32 %18, ptr %2, align 4, !tbaa !8
  br label %lean_inc.exit

19:                                               ; preds = %15
  %.not.i30 = icmp eq i32 %.val.i29, 0
  br i1 %.not.i30, label %lean_inc.exit, label %20

20:                                               ; preds = %19
  tail call void @lean_inc_ref_cold(ptr noundef nonnull %2) #5
  br label %lean_inc.exit

lean_inc.exit:                                    ; preds = %20, %19, %17, %lean_inc.exit18
  %21 = tail call ptr @lean_apply_2(ptr noundef %0, ptr noundef %2, ptr noundef %3) #5
  %22 = ptrtoint ptr %21 to i64
  %23 = and i64 %22, 1
  %.not33 = icmp eq i64 %23, 0
  br i1 %.not33, label %24, label %lean_dec.exit21

24:                                               ; preds = %lean_inc.exit
  %25 = load i32, ptr %21, align 4, !tbaa !8
  %26 = icmp sgt i32 %25, 1
  br i1 %26, label %27, label %29, !prof !13

27:                                               ; preds = %24
  %28 = add nsw i32 %25, -1
  store i32 %28, ptr %21, align 4, !tbaa !8
  br label %lean_dec.exit21

29:                                               ; preds = %24
  %.not.i = icmp eq i32 %25, 0
  br i1 %.not.i, label %lean_dec.exit21, label %30

30:                                               ; preds = %29
  tail call void @lean_dec_ref_cold(ptr noundef nonnull %21) #5
  br label %lean_dec.exit21

lean_dec.exit21:                                  ; preds = %30, %29, %27, %lean_inc.exit
  %31 = and i64 %22, 510
  %32 = icmp eq i64 %31, 0
  br i1 %32, label %33, label %57

33:                                               ; preds = %lean_dec.exit21
  br i1 %.not, label %34, label %lean_dec.exit20

34:                                               ; preds = %33
  %35 = load i32, ptr %3, align 4, !tbaa !8
  %36 = icmp sgt i32 %35, 1
  br i1 %36, label %37, label %39, !prof !13

37:                                               ; preds = %34
  %38 = add nsw i32 %35, -1
  store i32 %38, ptr %3, align 4, !tbaa !8
  br label %lean_dec.exit20

39:                                               ; preds = %34
  %.not.i22 = icmp eq i32 %35, 0
  br i1 %.not.i22, label %lean_dec.exit20, label %40

40:                                               ; preds = %39
  tail call void @lean_dec_ref_cold(ptr noundef nonnull %3) #5
  br label %lean_dec.exit20

lean_dec.exit20:                                  ; preds = %40, %39, %37, %33
  br i1 %.not32, label %41, label %lean_dec.exit19

41:                                               ; preds = %lean_dec.exit20
  %42 = load i32, ptr %2, align 4, !tbaa !8
  %43 = icmp sgt i32 %42, 1
  br i1 %43, label %44, label %46, !prof !13

44:                                               ; preds = %41
  %45 = add nsw i32 %42, -1
  store i32 %45, ptr %2, align 4, !tbaa !8
  br label %lean_dec.exit19

46:                                               ; preds = %41
  %.not.i24 = icmp eq i32 %42, 0
  br i1 %.not.i24, label %lean_dec.exit19, label %47

47:                                               ; preds = %46
  tail call void @lean_dec_ref_cold(ptr noundef nonnull %2) #5
  br label %lean_dec.exit19

lean_dec.exit19:                                  ; preds = %47, %46, %44, %lean_dec.exit20
  %48 = ptrtoint ptr %1 to i64
  %49 = and i64 %48, 1
  %.not34 = icmp eq i64 %49, 0
  br i1 %.not34, label %50, label %lean_dec.exit

50:                                               ; preds = %lean_dec.exit19
  %51 = load i32, ptr %1, align 4, !tbaa !8
  %52 = icmp sgt i32 %51, 1
  br i1 %52, label %53, label %55, !prof !13

53:                                               ; preds = %50
  %54 = add nsw i32 %51, -1
  store i32 %54, ptr %1, align 4, !tbaa !8
  br label %lean_dec.exit

55:                                               ; preds = %50
  %.not.i26 = icmp eq i32 %51, 0
  br i1 %.not.i26, label %lean_dec.exit, label %56

56:                                               ; preds = %55
  tail call void @lean_dec_ref_cold(ptr noundef nonnull %1) #5
  br label %lean_dec.exit

57:                                               ; preds = %lean_dec.exit21
  %58 = tail call ptr @lean_apply_3(ptr noundef %1, ptr noundef %2, ptr noundef %3, ptr noundef nonnull inttoptr (i64 1 to ptr)) #5
  tail call void @lean_inc_heartbeat() #5
  %59 = tail call noalias ptr @mi_malloc_small(i64 noundef 16) #5
  %60 = icmp eq ptr %59, null
  br i1 %60, label %61, label %lean_alloc_ctor.exit

61:                                               ; preds = %57
  tail call void @lean_internal_panic_out_of_memory() #6
  unreachable

lean_alloc_ctor.exit:                             ; preds = %57
  %62 = getelementptr inbounds nuw i8, ptr %59, i64 4
  store i32 1, ptr %59, align 4, !tbaa !8
  store i32 16842768, ptr %62, align 4
  %63 = getelementptr inbounds nuw i8, ptr %59, i64 8
  store ptr %58, ptr %63, align 8, !tbaa !4
  br label %lean_dec.exit

lean_dec.exit:                                    ; preds = %lean_dec.exit19, %53, %55, %56, %lean_alloc_ctor.exit
  %.0 = phi ptr [ %59, %lean_alloc_ctor.exit ], [ inttoptr (i64 1 to ptr), %56 ], [ inttoptr (i64 1 to ptr), %55 ], [ inttoptr (i64 1 to ptr), %53 ], [ inttoptr (i64 1 to ptr), %lean_dec.exit19 ]
  ret ptr %.0
}